(lp0
ccopy_reg
_reconstructor
p1
(c__main__
Message
p2
c__builtin__
object
p3
Ntp4
Rp5
(dp6
S'colorId'
p7
I240
sS'father'
p8
I-1
sS'content'
p9
S''
p10
sS'sons'
p11
(lp12
I1
aI27
aI31
aI45
aI49
aI53
aI54
aI59
aI61
aI66
aI68
asS'senderName'
p13
S'root'
p14
sS'id'
p15
I0
sbag1
(g2
g3
Ntp16
Rp17
(dp18
g7
I152
sg8
I0
sg9
VLove here!~~~
p19
sS'hot'
p20
I57
sg11
(lp21
I2
aI3
aI4
aI5
aI6
aI7
aI8
aI9
aI10
aI11
aI12
aI13
aI14
aI15
aI16
aI17
aI18
aI19
aI20
aI21
aI22
aI23
aI24
aI25
aI26
aI35
aI55
asg13
Vjfdka
p22
sg15
I1
sbag1
(g2
g3
Ntp23
Rp24
(dp25
g7
I152
sg8
I1
sg9
Vfdas
p26
sg11
(lp27
sS'place'
p28
I2
sg13
Vjfdka
p29
sg15
I2
sbag1
(g2
g3
Ntp30
Rp31
(dp32
g7
I152
sg8
I1
sg9
V>>
p33
sg11
(lp34
sg28
I11
sg13
Vjfdka
p35
sg15
I3
sbag1
(g2
g3
Ntp36
Rp37
(dp38
g7
I152
sg8
I1
sg9
V<<
p39
sg11
(lp40
sg28
I3
sg13
Vjfdka
p41
sg15
I4
sbag1
(g2
g3
Ntp42
Rp43
(dp44
g7
I152
sg8
I1
sg9
V!!
p45
sg11
(lp46
sg28
I7
sg13
Vjfdka
p47
sg15
I5
sbag1
(g2
g3
Ntp48
Rp49
(dp50
g7
I152
sg8
I1
sg9
Vfds
p51
sg11
(lp52
sg28
I4
sg13
Vjfdka
p53
sg15
I6
sbag1
(g2
g3
Ntp54
Rp55
(dp56
g7
I152
sg8
I1
sg9
VMova
p57
sg11
(lp58
sg28
I1
sg13
Vjfdka
p59
sg15
I7
sbag1
(g2
g3
Ntp60
Rp61
(dp62
g7
I152
sg8
I1
sg9
VCsd
p63
sg11
(lp64
sg28
I0
sg13
Vjfdka
p65
sg15
I8
sbag1
(g2
g3
Ntp66
Rp67
(dp68
g7
I152
sg8
I1
sg9
VQwe
p69
sg11
(lp70
sg28
I9
sg13
Vjfdka
p71
sg15
I9
sbag1
(g2
g3
Ntp72
Rp73
(dp74
g7
I152
sg8
I1
sg9
Vfd
p75
sg20
I2
sg11
(lp76
I38
asg28
I10
sg13
Vjfdka
p77
sg15
I10
sbag1
(g2
g3
Ntp78
Rp79
(dp80
g7
I152
sg8
I1
sg9
V:<>>>>
p81
sg11
(lp82
sg28
I6
sg13
Vjfdka
p83
sg15
I11
sbag1
(g2
g3
Ntp84
Rp85
(dp86
g7
I152
sg8
I1
sg9
VM<MF<DSMF<DS
p87
sg11
(lp88
sg28
I8
sg13
Vjfdka
p89
sg15
I12
sbag1
(g2
g3
Ntp90
Rp91
(dp92
g7
I152
sg8
I1
sg9
Vfjdkaslfjsaievneosn
p93
sg11
(lp94
sg28
I5
sg13
Vjfdka
p95
sg15
I13
sbag1
(g2
g3
Ntp96
Rp97
(dp98
g7
I152
sg8
I1
sg9
Vjklasdjf
p99
sg11
(lp100
sg28
I17
sg13
Vjfdka
p101
sg15
I14
sbag1
(g2
g3
Ntp102
Rp103
(dp104
g7
I152
sg8
I1
sg9
V???
p105
sg20
I2
sg11
(lp106
I37
asg28
I20
sg13
Vjfdka
p107
sg15
I15
sbag1
(g2
g3
Ntp108
Rp109
(dp110
g7
I54
sg8
I1
sg9
V+++
p111
sg11
(lp112
sg28
I15
sg13
Vfads
p113
sg15
I16
sbag1
(g2
g3
Ntp114
Rp115
(dp116
g7
I54
sg8
I1
sg9
V666
p117
sg20
I2
sg11
(lp118
I36
asg28
I19
sg13
Vfads
p119
sg15
I17
sbag1
(g2
g3
Ntp120
Rp121
(dp122
g7
I54
sg8
I1
sg9
V35r
p123
sg11
(lp124
sg28
I14
sg13
Vfads
p125
sg15
I18
sbag1
(g2
g3
Ntp126
Rp127
(dp128
g7
I54
sg8
I1
sg9
V(09f0dsa
p129
sg11
(lp130
sg28
I18
sg13
Vfads
p131
sg15
I19
sbag1
(g2
g3
Ntp132
Rp133
(dp134
g7
I54
sg8
I1
sg9
Vnvc
p135
sg11
(lp136
sg28
I13
sg13
Vfads
p137
sg15
I20
sbag1
(g2
g3
Ntp138
Rp139
(dp140
g7
I54
sg8
I1
sg9
Vfdsa
p141
sg11
(lp142
sg28
I21
sg13
Vfads
p143
sg15
I21
sbag1
(g2
g3
Ntp144
Rp145
(dp146
g7
I54
sg8
I1
sg9
V?FD>?SDF
p147
sg11
(lp148
sg28
I22
sg13
Vfads
p149
sg15
I22
sbag1
(g2
g3
Ntp150
Rp151
(dp152
g7
I54
sg8
I1
sg9
V82348ur
p153
sg11
(lp154
sg28
I16
sg13
Vfads
p155
sg15
I23
sbag1
(g2
g3
Ntp156
Rp157
(dp158
g7
I54
sg8
I1
sg9
Vfd
p159
sg11
(lp160
sg28
I23
sg13
Vfads
p161
sg15
I24
sbag1
(g2
g3
Ntp162
Rp163
(dp164
g7
I54
sg8
I1
sg9
VN<IVJPVWMOPMVWPMVWPM
p165
sg11
(lp166
sg28
I12
sg13
Vfads
p167
sg15
I25
sbag1
(g2
g3
Ntp168
Rp169
(dp170
g7
I54
sg8
I1
sg9
Vfdnvcmx,
p171
sg11
(lp172
sg28
I30
sg13
Vfads
p173
sg15
I26
sbag1
(g2
g3
Ntp174
Rp175
(dp176
g7
I54
sg8
I0
sg9
V>_<
p177
sg20
I22
sg11
(lp178
I28
aI29
aI30
aI34
aI40
aI42
aI47
aI56
aI57
asg13
Vfads
p179
sg15
I27
sbag1
(g2
g3
Ntp180
Rp181
(dp182
g7
I54
sg8
I27
sg9
VHOwef
p183
sg11
(lp184
sg28
I9
sg13
Vfads
p185
sg15
I28
sbag1
(g2
g3
Ntp186
Rp187
(dp188
g7
I54
sg8
I27
sg9
V\u6709\u4eba\u4e48
p189
sg20
I2
sg11
(lp190
I43
asg28
I10
sg13
Vfads
p191
sg15
I29
sbag1
(g2
g3
Ntp192
Rp193
(dp194
g7
I153
sg8
I27
sg9
V\u6709
p195
sg20
I3
sg11
(lp196
I33
asg28
I7
sg13
Vf3
p197
sg15
I30
sbag1
(g2
g3
Ntp198
Rp199
(dp200
g7
I0
sg8
I0
sg9
V---------
p201
sg20
I6
sg11
(lp202
I32
aI41
asg13
V
p203
sg15
I31
sbag1
(g2
g3
Ntp204
Rp205
(dp206
g7
I0
sg8
I31
sg9
V<><><>
p207
sg11
(lp208
sg28
I6
sg13
g203
sg15
I32
sbag1
(g2
g3
Ntp209
Rp210
(dp211
g7
I0
sg8
I30
sg9
Ven
p212
sg20
I2
sg11
(lp213
I39
asg28
I2
sg13
g203
sg15
I33
sbag1
(g2
g3
Ntp214
Rp215
(dp216
g7
I0
sg8
I27
sg9
V>>>>
p217
sg20
I2
sg11
(lp218
I44
asg28
I3
sg13
g203
sg15
I34
sbag1
(g2
g3
Ntp219
Rp220
(dp221
g7
I0
sg8
I1
sg9
V\u8fd9\u4e2a\u5730\u65b9\u597d\u4e71~
p222
sg11
(lp223
sg28
I31
sg13
g203
sg15
I35
sbag1
(g2
g3
Ntp224
Rp225
(dp226
g7
I317
sg8
I17
sg9
V237940
p227
sg11
(lp228
sg28
I5
sg13
Vfds
p229
sg15
I36
sbag1
(g2
g3
Ntp230
Rp231
(dp232
g7
I317
sg8
I15
sg9
V!!!
p233
sg11
(lp234
sg28
I3
sg13
Vfds
p235
sg15
I37
sbag1
(g2
g3
Ntp236
Rp237
(dp238
g7
I317
sg8
I10
sg9
V392932409324
p239
sg11
(lp240
sg28
I8
sg13
Vfds
p241
sg15
I38
sbag1
(g2
g3
Ntp242
Rp243
(dp244
g7
I317
sg8
I33
sg9
V>>>
p245
sg11
(lp246
sg28
I4
sg13
Vfds
p247
sg15
I39
sbag1
(g2
g3
Ntp248
Rp249
(dp250
g7
I317
sg8
I27
sg9
V<><><><>
p251
sg11
(lp252
sg28
I11
sg13
Vfds
p253
sg15
I40
sbag1
(g2
g3
Ntp254
Rp255
(dp256
g7
I203
sg8
I31
sg9
V\u6ca1\u6709\u540d\u5b57\u600e\u4e48\u767b\u9646\u554a
p257
sg20
I4
sg11
(lp258
I50
aI65
asg28
I7
sg13
V23f
p259
sg15
I41
sbag1
(g2
g3
Ntp260
Rp261
(dp262
g7
I203
sg8
I27
sg9
V\u5404\u79cd\u5947\u602a\u7684\u6392\u7248
p263
sg20
I2
sg11
(lp264
I48
asg28
I8
sg13
V23f
p265
sg15
I42
sbag1
(g2
g3
Ntp266
Rp267
(dp268
g7
I203
sg8
I29
sg9
V\u6709
p269
sg11
(lp270
sg28
I1
sg13
Vyuhuh
p271
sg15
I43
sbag1
(g2
g3
Ntp272
Rp273
(dp274
g7
I203
sg8
I34
sg9
V<<<<<<<<<
p275
sg11
(lp276
sg28
I10
sg13
Vyuhuh
p277
sg15
I44
sbag1
(g2
g3
Ntp278
Rp279
(dp280
g7
I108
sg8
I0
sg9
V\u8fd9\u4e2a\u7eff\u8272\u597d\u597d\u770b\uff01
p281
sg20
I8
sg11
(lp282
I46
aI58
aI64
aI67
asg13
Vuuuu
p283
sg15
I45
sbag1
(g2
g3
Ntp284
Rp285
(dp286
g7
I108
sg8
I45
sg9
V\u597d\u770b\uff01
p287
sg11
(lp288
sg28
I9
sg13
Vuuuu
p289
sg15
I46
sbag1
(g2
g3
Ntp290
Rp291
(dp292
g7
I108
sg8
I27
sg9
V\u5404\u79cd\u6df7\u4e71\u2026\u2026
p293
sg11
(lp294
sg28
I0
sg13
Vuuuu
p295
sg15
I47
sbag1
(g2
g3
Ntp296
Rp297
(dp298
g7
I108
sg8
I42
sg9
V\u5c31\u8fd9\u6837\u5427\u8fd8\u80fd\u600e\u4e48\u529e
p299
sg11
(lp300
sg28
I0
sg13
Vuuuu
p301
sg15
I48
sbag1
(g2
g3
Ntp302
Rp303
(dp304
g7
I108
sg8
I0
sg9
V\u5982\u679c\u51fa\u73b0\u6eda\u52a8\u6761\u5e94\u8be5\u600e\u4e48\u529e
p305
sg20
I4
sg11
(lp306
I51
aI52
asg13
Vuuuu
p307
sg15
I49
sbag1
(g2
g3
Ntp308
Rp309
(dp310
g7
I108
sg8
I41
sg9
V\u5728\u6ce8\u518c\u7684\u65f6\u5019\u7cfb\u7edf\u4f1a\u8fdb\u884ctrim()\u64cd\u4f5c\uff0c\u8fd9\u6837\u7684\u8bdd\u7528\u7a7a\u683c\u5c31\u53ef\u4ee5\u4f5c\u4e3a\u7528\u6237\u540d\u767b\u5f55
p311
sg11
(lp312
sg28
I10
sg13
Vuuuu
p313
sg15
I50
sbag1
(g2
g3
Ntp314
Rp315
(dp316
g7
I108
sg8
I49
sg9
V\u5b57\u592a\u591a\u7684\u8bdd\u662f\u4e0d\u662f\u5e94\u8be5\u628a\u5b57\u53f7\u8c03\u5c0f\u4e00\u70b9
p317
sg11
(lp318
sg28
I0
sg13
Vuuuu
p319
sg15
I51
sbag1
(g2
g3
Ntp320
Rp321
(dp322
g7
I108
sg8
I49
sg9
V\u6eda\u52a8\u6761\u6709\u65f6\u5019\u4f1a\u628a\u6587\u5b57\u90e8\u5206\u6321\u4f4f
p323
sg11
(lp324
sg28
I6
sg13
Vuuuu
p325
sg15
I52
sbag1
(g2
g3
Ntp326
Rp327
(dp328
g7
I108
sg8
I0
sg9
V\u8fdb\u5165\u6b21\u8282\u70b9\u7684\u65f6\u5019\u5b9e\u5728\u4e0d\u7ed9\u529b\uff0c\u8981\u4e0d\u8981\u663e\u793a\u5144\u5f1f\u8282\u70b9
p329
sg11
(lp330
sg13
Vuuuu
p331
sg15
I53
sbag1
(g2
g3
Ntp332
Rp333
(dp334
g7
I108
sg8
I0
sg9
V\u4e3a\u4ec0\u4e48\u53d1\u4e2a\u4fe1\u606f\u8fd9\u4e48\u5361
p335
sg20
I2
sg11
(lp336
I60
asg13
Vuuuu
p337
sg15
I54
sbag1
(g2
g3
Ntp338
Rp339
(dp340
g7
I108
sg8
I1
sg9
V12\u56f4\u57ce\u60f3\u51fa\u6765\u4e0d\u5bb9\u6613\u554a
p341
sg11
(lp342
sg28
I24
sg13
Vuuuu
p343
sg15
I55
sbag1
(g2
g3
Ntp344
Rp345
(dp346
g7
I108
sg8
I27
sg9
V\u8fd9\u4e2a\u6837\u5b50\u5f88\u840c\u554a~~
p347
sg11
(lp348
sg28
I5
sg13
Vuuuu
p349
sg15
I56
sbag1
(g2
g3
Ntp350
Rp351
(dp352
g7
I108
sg8
I27
sg9
V@_@)
p353
sg11
(lp354
sg28
I1
sg13
Vuuuu
p355
sg15
I57
sbag1
(g2
g3
Ntp356
Rp357
(dp358
g7
I261
sg8
I45
sg9
V\u8981\u4e0d\u8981\u5141\u8bb8\u81ea\u5df1\u9009\u989c\u8272
p359
sg11
(lp360
sg28
I7
sg13
VSugark
p361
sg15
I58
sbag1
(g2
g3
Ntp362
Rp363
(dp364
g7
I261
sg8
I0
sg9
V\u6392\u5e8f\u8fd9\u662f\u600e\u4e48\u6392\u7684\uff0c\u8981\u4e0d\u8981\u5199\u4e2a\u65f6\u95f4-\u5173\u6ce8\u5ea6\u51fd\u6570
p365
sg11
(lp366
sg13
VSugark
p367
sg15
I59
sbag1
(g2
g3
Ntp368
Rp369
(dp370
g7
I261
sg8
I54
sg9
V\u8981\u4e0d\u8981\u5047\u88c5\u5728\u5ba1\u6838
p371
sg11
(lp372
sg28
I0
sg13
VSugark
p373
sg15
I60
sbag1
(g2
g3
Ntp374
Rp375
(dp376
g7
I22
sg8
I0
sg9
V\u4e00\u4e0a\u6765\u5c31\u5d29\u4e86\u2026\u2026
p377
sg20
I4
sg11
(lp378
I62
aI63
asg13
VTttB
p379
sg15
I61
sbag1
(g2
g3
Ntp380
Rp381
(dp382
g7
I21
sg8
I61
sg9
V\u6211\u4eec\u989c\u8272\u54b1\u4e48\u8fd9\u4e48\u50cf
p383
sg11
(lp384
sg28
I11
sg13
VTttA
p385
sg15
I62
sbag1
(g2
g3
Ntp386
Rp387
(dp388
g7
I21
sg8
I61
sg9
V\u8bdd\u8bf4\u56de\u6765VS\u7684debug\u529f\u80fd\u8fd8\u771f\u662f\u795e\u5947\u2026\u2026
p389
sg11
(lp390
sg28
I9
sg13
VTttA
p391
sg15
I63
sbag1
(g2
g3
Ntp392
Rp393
(dp394
g7
I21
sg8
I45
sg9
V\u4e2a\u4eba\u8ba4\u4e3a\u5e94\u8be5\u6362\u4e00\u4e2a\u9ad8\u7ea7\u4e00\u70b9\u7684\u989c\u8272\u7b97\u6cd5
p395
sg11
(lp396
sg28
I0
sg13
VTttA
p397
sg15
I64
sbag1
(g2
g3
Ntp398
Rp399
(dp400
g7
I21
sg8
I41
sg9
V\u8bdd\u8bf4\u5b57\u592a\u591a\u4e86\u8fd9\u4e2a\u5e94\u8be5\u5904\u7406\u4e00\u4e0b\u5427
p401
sg11
(lp402
sg28
I0
sg13
VTttA
p403
sg15
I65
sbag1
(g2
g3
Ntp404
Rp405
(dp406
g7
I21
sg8
I0
sg9
V\u5bf9\u4e86\u8bf4\u597d\u7684\u5bc6\u7801\u7cfb\u7edf\u5462
p407
sg11
(lp408
sg13
VTttA
p409
sg15
I66
sbag1
(g2
g3
Ntp410
Rp411
(dp412
g7
I111
sg8
I45
sg9
V\u6211\u7684\u989c\u8272\u4e5f\u662f\u8fd9\u6837\u7684~~~
p413
sg11
(lp414
sg28
I6
sg13
V78
p415
sg15
I67
sbag1
(g2
g3
Ntp416
Rp417
(dp418
g7
I100
sg8
I0
sg9
Vfdsa
p419
sg11
(lp420
sg13
Vd
p421
sg15
I68
sba.