(lp0
ccopy_reg
_reconstructor
p1
(c__main__
User
p2
c__builtin__
object
p3
Ntp4
Rp5
(dp6
S'colorId'
p7
I54
sS'password'
p8
V
p9
sS'nickname'
p10
Vfdas
p11
sbag1
(g2
g3
Ntp12
Rp13
(dp14
g7
I278
sg8
g9
sg10
Vjsdfkl
p15
sbag1
(g2
g3
Ntp16
Rp17
(dp18
g7
I67
sg8
g9
sg10
V909s0f
p19
sbag1
(g2
g3
Ntp20
Rp21
(dp22
g7
I54
sg8
g9
sg10
Vfasd
p23
sbag1
(g2
g3
Ntp24
Rp25
(dp26
g7
I200
sg8
g9
sg10
Vec
p27
sbag1
(g2
g3
Ntp28
Rp29
(dp30
g7
I54
sg8
Vasdf
p31
sg10
Vasdf
p32
sbag1
(g2
g3
Ntp33
Rp34
(dp35
g7
I299
sg8
g9
sg10
Vfda
p36
sbag1
(g2
g3
Ntp37
Rp38
(dp39
g7
I54
sg8
Vfd
p40
sg10
Vfdsa
p41
sbag1
(g2
g3
Ntp42
Rp43
(dp44
g7
I201
sg8
g9
sg10
Ved
p45
sbag1
(g2
g3
Ntp46
Rp47
(dp48
g7
I100
sg8
g9
sg10
Vd
p49
sbag1
(g2
g3
Ntp50
Rp51
(dp52
g7
I254
sg8
g9
sg10
Vasdfdd
p53
sbag1
(g2
g3
Ntp54
Rp55
(dp56
g7
I73
sg8
g9
sg10
Vecsv
p57
sbag1
(g2
g3
Ntp58
Rp59
(dp60
g7
I154
sg8
g9
sg10
Vasdfd
p61
sbag1
(g2
g3
Ntp62
Rp63
(dp64
g7
I169
sg8
g9
sg10
Vasdfs
p65
sbag1
(g2
g3
Ntp66
Rp67
(dp68
g7
I324
sg8
g9
sg10
Vqwerty
p69
sbag1
(g2
g3
Ntp70
Rp71
(dp72
g7
I218
sg8
g9
sg10
VId9_3fd
p73
sbag1
(g2
g3
Ntp74
Rp75
(dp76
g7
I54
sg8
g9
sg10
Vadsf
p77
sbag1
(g2
g3
Ntp78
Rp79
(dp80
g7
I20
sg8
Vjkl
p81
sg10
Vjkl;
p82
sba.